target datalayout = "e-m:e-p270:32:32-p271:32:32-p272:64:64-i64:64-i128:128-f80:128-n8:16:32:64-S128"
target triple = "x86_64-pc-linux-gnu"

%struct.On2AVCContext = type { ptr, ptr, ptr, ptr, ptr, ptr, ptr, ptr, ptr, ptr, ptr, ptr, ptr, ptr, ptr, ptr, ptr, i32, ptr, i32, i32, i32, i32, i32, ptr, [8 x i32], i32, [112 x i32], i32, [112 x i8], [112 x i8], i32, [112 x float], %struct.VLC, [16 x %struct.VLC], [128 x float], [2 x [1024 x float]], [2 x [1024 x float]], [2048 x float], [1024 x float], [1024 x float], [128 x float] }
%struct.VLC = type { i32, ptr, i32, i32 }

; Function Attrs: cold nounwind optsize uwtable
define internal void @on2avc_free_vlcs(ptr noundef %0) #0 {
  %2 = alloca ptr, align 8
  %3 = alloca i32, align 4
  store ptr %0, ptr %2, align 8, !tbaa !29
  call void @llvm.lifetime.start.p0(i64 4, ptr %3) #12
  %4 = load ptr, ptr %2, align 8, !tbaa !29
  %5 = getelementptr inbounds nuw %struct.On2AVCContext, ptr %4, i32 0, i32 33
  call void @ff_vlc_free(ptr noundef %5)
  store i32 1, ptr %3, align 4, !tbaa !34
  br label %6

6:                                                ; preds = %15, %1
  %7 = load i32, ptr %3, align 4, !tbaa !34
  %8 = icmp slt i32 %7, 16
  br i1 %8, label %9, label %18

9:                                                ; preds = %6
  %10 = load ptr, ptr %2, align 8, !tbaa !29
  %11 = getelementptr inbounds nuw %struct.On2AVCContext, ptr %10, i32 0, i32 34
  %12 = load i32, ptr %3, align 4, !tbaa !34
  %13 = sext i32 %12 to i64
  %14 = getelementptr inbounds [16 x %struct.VLC], ptr %11, i64 0, i64 %13
  call void @ff_vlc_free(ptr noundef %14)
  br label %15

15:                                               ; preds = %9
  %16 = load i32, ptr %3, align 4, !tbaa !34
  %17 = add nsw i32 %16, 1
  store i32 %17, ptr %3, align 4, !tbaa !34
  br label %6, !llvm.loop !165

18:                                               ; preds = %6
  call void @llvm.lifetime.end.p0(i64 4, ptr %3) #12
  ret void
}