; Function Attrs: cold nounwind optsize uwtable
define internal fastcc void @on2avc_free_vlcs(ptr noundef %0) unnamed_addr #0 {
  %2 = getelementptr inbounds nuw i8, ptr %0, i64 1352
  tail call void @ff_vlc_free(ptr noundef nonnull %2) #11
  %3 = getelementptr inbounds nuw i8, ptr %0, i64 1376
  br label %4

4:                                                ; preds = %1, %4
  %indvars.iv = phi i64 [ 1, %1 ], [ %indvars.iv.next, %4 ]
  %5 = getelementptr inbounds nuw [16 x %struct.VLC], ptr %3, i64 0, i64 %indvars.iv
  tail call void @ff_vlc_free(ptr noundef nonnull %5) #11
  %indvars.iv.next = add nuw nsw i64 %indvars.iv, 1
  %exitcond.not = icmp eq i64 %indvars.iv.next, 16
  br i1 %exitcond.not, label %6, label %4, !llvm.loop !133

6:                                                ; preds = %4
  ret void
}